target datalayout = "e-m:e-p270:32:32-p271:32:32-p272:64:64-i64:64-i128:128-f80:128-n8:16:32:64-S128"
target triple = "x86_64-pc-linux-gnu"

%"struct.std::__1::__shared_mutex_base" = type <{ %"class.std::__1::mutex", %"class.std::__1::condition_variable", %"class.std::__1::condition_variable", i32, [4 x i8] }>
%"class.std::__1::mutex" = type { %union.pthread_mutex_t }
%union.pthread_mutex_t = type { %struct.__pthread_mutex_s }
%struct.__pthread_mutex_s = type { i32, i32, i32, i32, i32, i16, i16, %struct.__pthread_internal_list }
%struct.__pthread_internal_list = type { ptr, ptr }
%"class.std::__1::condition_variable" = type { %union.pthread_cond_t }
%union.pthread_cond_t = type { %struct.__pthread_cond_s }
%struct.__pthread_cond_s = type { %union.__atomic_wide_counter, %union.__atomic_wide_counter, [2 x i32], [2 x i32], i32, i32, [2 x i32] }
%union.__atomic_wide_counter = type { i64 }
%"class.std::__1::unique_lock" = type <{ ptr, i8, [7 x i8] }>

; Function Attrs: mustprogress nounwind uwtable
define linkonce_odr hidden void @_ZNSt3__111unique_lockINS_5mutexEED2B8ne210000Ev(ptr noundef nonnull align 8 dereferenceable(9) %0) unnamed_addr #0 comdat align 2 {
  %2 = alloca ptr, align 8
  store ptr %0, ptr %2, align 8, !tbaa !27
  %3 = load ptr, ptr %2, align 8
  %4 = getelementptr inbounds nuw %"class.std::__1::unique_lock", ptr %3, i32 0, i32 1
  %5 = load i8, ptr %4, align 8, !tbaa !32, !range !33, !noundef !34
  %6 = trunc i8 %5 to i1
  br i1 %6, label %7, label %10

7:                                                ; preds = %1
  %8 = getelementptr inbounds nuw %"class.std::__1::unique_lock", ptr %3, i32 0, i32 0
  %9 = load ptr, ptr %8, align 8, !tbaa !29
  call void @_ZNSt3__15mutex6unlockEv(ptr noundef nonnull align 8 dereferenceable(40) %9) #7
  br label %10

10:                                               ; preds = %7, %1
  ret void
}

; Function Attrs: mustprogress uwtable
define linkonce_odr hidden void @_ZNSt3__111unique_lockINS_5mutexEEC2B8ne210000ERS1_(ptr noundef nonnull align 8 dereferenceable(9) %0, ptr noundef nonnull align 8 dereferenceable(40) %1) unnamed_addr #1 comdat align 2 {
  %3 = alloca ptr, align 8
  %4 = alloca ptr, align 8
  store ptr %0, ptr %3, align 8, !tbaa !27
  store ptr %1, ptr %4, align 8, !tbaa !15
  %5 = load ptr, ptr %3, align 8
  %6 = getelementptr inbounds nuw %"class.std::__1::unique_lock", ptr %5, i32 0, i32 0
  %7 = load ptr, ptr %4, align 8, !tbaa !15
  store ptr %7, ptr %6, align 8, !tbaa !29
  %8 = getelementptr inbounds nuw %"class.std::__1::unique_lock", ptr %5, i32 0, i32 1
  store i8 1, ptr %8, align 8, !tbaa !32
  %9 = getelementptr inbounds nuw %"class.std::__1::unique_lock", ptr %5, i32 0, i32 0
  %10 = load ptr, ptr %9, align 8, !tbaa !29
  call void @_ZNSt3__15mutex4lockEv(ptr noundef nonnull align 8 dereferenceable(40) %10)
  ret void
}

; Function Attrs: mustprogress uwtable
define dso_local void @_ZNSt3__119__shared_mutex_base4lockEv(ptr noundef nonnull align 8 dereferenceable(140) %0) #1 align 2 {
  %2 = alloca ptr, align 8
  %3 = alloca %"class.std::__1::unique_lock", align 8
  store ptr %0, ptr %2, align 8, !tbaa !5
  %4 = load ptr, ptr %2, align 8
  call void @llvm.lifetime.start.p0(i64 16, ptr %3) #7
  %5 = getelementptr inbounds nuw %"struct.std::__1::__shared_mutex_base", ptr %4, i32 0, i32 0
  call void @_ZNSt3__111unique_lockINS_5mutexEEC2B8ne210000ERS1_(ptr noundef nonnull align 8 dereferenceable(9) %3, ptr noundef nonnull align 8 dereferenceable(40) %5)
  br label %6

6:                                                ; preds = %11, %1
  %7 = getelementptr inbounds nuw %"struct.std::__1::__shared_mutex_base", ptr %4, i32 0, i32 3
  %8 = load i32, ptr %7, align 8, !tbaa !10
  %9 = and i32 %8, -2147483648
  %10 = icmp ne i32 %9, 0
  br i1 %10, label %11, label %13

11:                                               ; preds = %6
  %12 = getelementptr inbounds nuw %"struct.std::__1::__shared_mutex_base", ptr %4, i32 0, i32 1
  call void @_ZNSt3__118condition_variable4waitERNS_11unique_lockINS_5mutexEEE(ptr noundef nonnull align 8 dereferenceable(48) %12, ptr noundef nonnull align 8 dereferenceable(9) %3) #7
  br label %6, !llvm.loop !24

13:                                               ; preds = %6
  %14 = getelementptr inbounds nuw %"struct.std::__1::__shared_mutex_base", ptr %4, i32 0, i32 3
  %15 = load i32, ptr %14, align 8, !tbaa !10
  %16 = or i32 %15, -2147483648
  store i32 %16, ptr %14, align 8, !tbaa !10
  br label %17

17:                                               ; preds = %22, %13
  %18 = getelementptr inbounds nuw %"struct.std::__1::__shared_mutex_base", ptr %4, i32 0, i32 3
  %19 = load i32, ptr %18, align 8, !tbaa !10
  %20 = and i32 %19, 2147483647
  %21 = icmp ne i32 %20, 0
  br i1 %21, label %22, label %24

22:                                               ; preds = %17
  %23 = getelementptr inbounds nuw %"struct.std::__1::__shared_mutex_base", ptr %4, i32 0, i32 2
  call void @_ZNSt3__118condition_variable4waitERNS_11unique_lockINS_5mutexEEE(ptr noundef nonnull align 8 dereferenceable(48) %23, ptr noundef nonnull align 8 dereferenceable(9) %3) #7
  br label %17, !llvm.loop !26

24:                                               ; preds = %17
  call void @_ZNSt3__111unique_lockINS_5mutexEED2B8ne210000Ev(ptr noundef nonnull align 8 dereferenceable(9) %3) #7
  call void @llvm.lifetime.end.p0(i64 16, ptr %3) #7
  ret void
}