; Function Attrs: mustprogress uwtable
define dso_local void @_ZNSt3__119__shared_mutex_base4lockEv(ptr noundef nonnull align 8 dereferenceable(140) %0) local_unnamed_addr #1 align 2 {
  %2 = alloca %"class.std::__1::unique_lock", align 8
  call void @llvm.lifetime.start.p0(i64 16, ptr nonnull %2) #6
  store ptr %0, ptr %2, align 8, !tbaa !5
  %3 = getelementptr inbounds nuw i8, ptr %2, i64 8
  store i8 1, ptr %3, align 8, !tbaa !12
  tail call void @_ZNSt3__15mutex4lockEv(ptr noundef nonnull align 8 dereferenceable(40) %0)
  %4 = getelementptr inbounds nuw i8, ptr %0, i64 136
  %5 = load i32, ptr %4, align 8, !tbaa !13
  %.not3 = icmp sgt i32 %5, -1
  br i1 %.not3, label %._crit_edge, label %.lr.ph

.lr.ph:                                           ; preds = %1
  %6 = getelementptr inbounds nuw i8, ptr %0, i64 40
  br label %7

7:                                                ; preds = %.lr.ph, %7
  call void @_ZNSt3__118condition_variable4waitERNS_11unique_lockINS_5mutexEEE(ptr noundef nonnull align 8 dereferenceable(48) %6, ptr noundef nonnull align 8 dereferenceable(9) %2) #6
  %8 = load i32, ptr %4, align 8, !tbaa !13
  %.not = icmp sgt i32 %8, -1
  br i1 %.not, label %._crit_edge, label %7, !llvm.loop !18

._crit_edge:                                      ; preds = %7, %1
  %.lcssa = phi i32 [ %5, %1 ], [ %8, %7 ]
  %9 = or disjoint i32 %.lcssa, -2147483648
  store i32 %9, ptr %4, align 8, !tbaa !13
  %.not14 = icmp eq i32 %.lcssa, 0
  br i1 %.not14, label %._crit_edge7, label %.lr.ph6

.lr.ph6:                                          ; preds = %._crit_edge
  %10 = getelementptr inbounds nuw i8, ptr %0, i64 88
  br label %11

11:                                               ; preds = %.lr.ph6, %11
  call void @_ZNSt3__118condition_variable4waitERNS_11unique_lockINS_5mutexEEE(ptr noundef nonnull align 8 dereferenceable(48) %10, ptr noundef nonnull align 8 dereferenceable(9) %2) #6
  %12 = load i32, ptr %4, align 8, !tbaa !13
  %13 = and i32 %12, 2147483647
  %.not1 = icmp eq i32 %13, 0
  br i1 %.not1, label %._crit_edge7, label %11, !llvm.loop !20

._crit_edge7:                                     ; preds = %11, %._crit_edge
  %14 = load i8, ptr %3, align 8, !tbaa !12, !range !21, !noundef !22
  %15 = trunc nuw i8 %14 to i1
  br i1 %15, label %16, label %_ZNSt3__111unique_lockINS_5mutexEED2B8ne210000Ev.exit

16:                                               ; preds = %._crit_edge7
  %17 = load ptr, ptr %2, align 8, !tbaa !5
  call void @_ZNSt3__15mutex6unlockEv(ptr noundef nonnull align 8 dereferenceable(40) %17) #6
  br label %_ZNSt3__111unique_lockINS_5mutexEED2B8ne210000Ev.exit

_ZNSt3__111unique_lockINS_5mutexEED2B8ne210000Ev.exit: ; preds = %._crit_edge7, %16
  call void @llvm.lifetime.end.p0(i64 16, ptr nonnull %2) #6
  ret void
}